target datalayout = "e-m:e-p270:32:32-p271:32:32-p272:64:64-i64:64-i128:128-f80:128-n8:16:32:64-S128"
target triple = "x86_64-pc-linux-gnu"

%struct.Bac_Man_t_ = type { ptr, ptr, ptr, ptr, i32, i32, ptr, ptr, ptr, %struct.Vec_Int_t_, %struct.Vec_Int_t_, %struct.Vec_Int_t_, %struct.Vec_Int_t_, ptr, ptr, [4 x i32], [73 x ptr], [73 x ptr] }
%struct.Vec_Int_t_ = type { i32, i32, ptr }
%struct.Abc_Obj_t_ = type { ptr, ptr, i32, i32, %struct.Vec_Int_t_, %struct.Vec_Int_t_, %union.anon, %union.anon.0 }
%union.anon = type { ptr }
%union.anon.0 = type { ptr }
%struct.Abc_Ntk_t_ = type { i32, i32, ptr, ptr, ptr, ptr, ptr, ptr, ptr, ptr, ptr, ptr, ptr, [11 x i32], i32, i32, i32, i32, ptr, i32, ptr, ptr, i32, i32, i32, double, i32, %struct.Vec_Int_t_, ptr, ptr, ptr, ptr, ptr, float, i32, ptr, ptr, ptr, ptr, ptr, ptr, ptr, ptr, ptr, ptr, ptr, ptr, ptr, ptr, ptr, ptr, ptr, ptr, ptr, ptr, ptr }
%struct.Vec_Ptr_t_ = type { i32, i32, ptr }

; Function Attrs: nounwind uwtable
define internal i32 @Vec_IntSize(ptr noundef %0) #0 {
  %2 = alloca ptr, align 8
  store ptr %0, ptr %2, align 8
  %3 = load ptr, ptr %2, align 8
  %4 = getelementptr inbounds %struct.Vec_Int_t_, ptr %3, i32 0, i32 1
  %5 = load i32, ptr %4, align 4
  ret i32 %5
}

; Function Attrs: nounwind uwtable
define internal i32 @Abc_NtkHasMapping(ptr noundef %0) #0 {
  %2 = alloca ptr, align 8
  store ptr %0, ptr %2, align 8
  %3 = load ptr, ptr %2, align 8
  %4 = getelementptr inbounds %struct.Abc_Ntk_t_, ptr %3, i32 0, i32 1
  %5 = load i32, ptr %4, align 4
  %6 = icmp eq i32 %5, 4
  %7 = zext i1 %6 to i32
  ret i32 %7
}

; Function Attrs: nounwind uwtable
define internal ptr @Vec_PtrEntry(ptr noundef %0, i32 noundef %1) #0 {
  %3 = alloca ptr, align 8
  %4 = alloca i32, align 4
  store ptr %0, ptr %3, align 8
  store i32 %1, ptr %4, align 4
  %5 = load ptr, ptr %3, align 8
  %6 = getelementptr inbounds %struct.Vec_Ptr_t_, ptr %5, i32 0, i32 2
  %7 = load ptr, ptr %6, align 8
  %8 = load i32, ptr %4, align 4
  %9 = sext i32 %8 to i64
  %10 = getelementptr inbounds ptr, ptr %7, i64 %9
  %11 = load ptr, ptr %10, align 8
  ret ptr %11
}

; Function Attrs: nounwind uwtable
define internal ptr @Abc_NtkPo(ptr noundef %0, i32 noundef %1) #0 {
  %3 = alloca ptr, align 8
  %4 = alloca i32, align 4
  store ptr %0, ptr %3, align 8
  store i32 %1, ptr %4, align 4
  %5 = load ptr, ptr %3, align 8
  %6 = getelementptr inbounds %struct.Abc_Ntk_t_, ptr %5, i32 0, i32 7
  %7 = load ptr, ptr %6, align 8
  %8 = load i32, ptr %4, align 4
  %9 = call ptr @Vec_PtrEntry(ptr noundef %7, i32 noundef %8)
  ret ptr %9
}

; Function Attrs: nounwind uwtable
define internal i32 @Abc_NtkPoNum(ptr noundef %0) #0 {
  %2 = alloca ptr, align 8
  store ptr %0, ptr %2, align 8
  %3 = load ptr, ptr %2, align 8
  %4 = getelementptr inbounds %struct.Abc_Ntk_t_, ptr %3, i32 0, i32 7
  %5 = load ptr, ptr %4, align 8
  %6 = call i32 @Vec_PtrSize(ptr noundef %5)
  ret i32 %6
}

; Function Attrs: nounwind uwtable
define internal ptr @Abc_ObjFanin(ptr noundef %0, i32 noundef %1) #0 {
  %3 = alloca ptr, align 8
  %4 = alloca i32, align 4
  store ptr %0, ptr %3, align 8
  store i32 %1, ptr %4, align 4
  %5 = load ptr, ptr %3, align 8
  %6 = getelementptr inbounds %struct.Abc_Obj_t_, ptr %5, i32 0, i32 0
  %7 = load ptr, ptr %6, align 8
  %8 = getelementptr inbounds %struct.Abc_Ntk_t_, ptr %7, i32 0, i32 5
  %9 = load ptr, ptr %8, align 8
  %10 = getelementptr inbounds %struct.Vec_Ptr_t_, ptr %9, i32 0, i32 2
  %11 = load ptr, ptr %10, align 8
  %12 = load ptr, ptr %3, align 8
  %13 = getelementptr inbounds %struct.Abc_Obj_t_, ptr %12, i32 0, i32 4
  %14 = getelementptr inbounds %struct.Vec_Int_t_, ptr %13, i32 0, i32 2
  %15 = load ptr, ptr %14, align 8
  %16 = load i32, ptr %4, align 4
  %17 = sext i32 %16 to i64
  %18 = getelementptr inbounds i32, ptr %15, i64 %17
  %19 = load i32, ptr %18, align 4
  %20 = sext i32 %19 to i64
  %21 = getelementptr inbounds ptr, ptr %11, i64 %20
  %22 = load ptr, ptr %21, align 8
  ret ptr %22
}

; Function Attrs: nounwind uwtable
define internal i32 @Abc_ObjFaninNum(ptr noundef %0) #0 {
  %2 = alloca ptr, align 8
  store ptr %0, ptr %2, align 8
  %3 = load ptr, ptr %2, align 8
  %4 = getelementptr inbounds %struct.Abc_Obj_t_, ptr %3, i32 0, i32 4
  %5 = getelementptr inbounds %struct.Vec_Int_t_, ptr %4, i32 0, i32 1
  %6 = load i32, ptr %5, align 4
  ret i32 %6
}

; Function Attrs: nounwind uwtable
define internal ptr @Abc_ObjFanin0(ptr noundef %0) #0 {
  %2 = alloca ptr, align 8
  store ptr %0, ptr %2, align 8
  %3 = load ptr, ptr %2, align 8
  %4 = getelementptr inbounds %struct.Abc_Obj_t_, ptr %3, i32 0, i32 0
  %5 = load ptr, ptr %4, align 8
  %6 = getelementptr inbounds %struct.Abc_Ntk_t_, ptr %5, i32 0, i32 5
  %7 = load ptr, ptr %6, align 8
  %8 = getelementptr inbounds %struct.Vec_Ptr_t_, ptr %7, i32 0, i32 2
  %9 = load ptr, ptr %8, align 8
  %10 = load ptr, ptr %2, align 8
  %11 = getelementptr inbounds %struct.Abc_Obj_t_, ptr %10, i32 0, i32 4
  %12 = getelementptr inbounds %struct.Vec_Int_t_, ptr %11, i32 0, i32 2
  %13 = load ptr, ptr %12, align 8
  %14 = getelementptr inbounds i32, ptr %13, i64 0
  %15 = load i32, ptr %14, align 4
  %16 = sext i32 %15 to i64
  %17 = getelementptr inbounds ptr, ptr %9, i64 %16
  %18 = load ptr, ptr %17, align 8
  ret ptr %18
}

; Function Attrs: nounwind uwtable
define internal i32 @Abc_NodeIsSeriousGate(ptr noundef %0) #0 {
  %2 = alloca ptr, align 8
  store ptr %0, ptr %2, align 8
  %3 = load ptr, ptr %2, align 8
  %4 = call i32 @Abc_ObjIsNode(ptr noundef %3)
  %5 = icmp ne i32 %4, 0
  br i1 %5, label %6, label %15

6:                                                ; preds = %1
  %7 = load ptr, ptr %2, align 8
  %8 = call i32 @Abc_ObjFaninNum(ptr noundef %7)
  %9 = icmp sgt i32 %8, 0
  br i1 %9, label %10, label %15

10:                                               ; preds = %6
  %11 = load ptr, ptr %2, align 8
  %12 = call i32 @Abc_ObjIsBarBuf(ptr noundef %11)
  %13 = icmp ne i32 %12, 0
  %14 = xor i1 %13, true
  br label %15

15:                                               ; preds = %10, %6, %1
  %16 = phi i1 [ false, %6 ], [ false, %1 ], [ %14, %10 ]
  %17 = zext i1 %16 to i32
  ret i32 %17
}

; Function Attrs: nounwind uwtable
define internal i32 @Vec_IntEntry(ptr noundef %0, i32 noundef %1) #0 {
  %3 = alloca ptr, align 8
  %4 = alloca i32, align 4
  store ptr %0, ptr %3, align 8
  store i32 %1, ptr %4, align 4
  %5 = load ptr, ptr %3, align 8
  %6 = getelementptr inbounds %struct.Vec_Int_t_, ptr %5, i32 0, i32 2
  %7 = load ptr, ptr %6, align 8
  %8 = load i32, ptr %4, align 4
  %9 = sext i32 %8 to i64
  %10 = getelementptr inbounds i32, ptr %7, i64 %9
  %11 = load i32, ptr %10, align 4
  ret i32 %11
}

; Function Attrs: nounwind uwtable
define internal i32 @Abc_ObjIsBarBuf(ptr noundef %0) #0 {
  %2 = alloca ptr, align 8
  store ptr %0, ptr %2, align 8
  %3 = load ptr, ptr %2, align 8
  %4 = getelementptr inbounds %struct.Abc_Obj_t_, ptr %3, i32 0, i32 0
  %5 = load ptr, ptr %4, align 8
  %6 = call i32 @Abc_NtkHasMapping(ptr noundef %5)
  %7 = icmp ne i32 %6, 0
  br i1 %7, label %8, label %22

8:                                                ; preds = %1
  %9 = load ptr, ptr %2, align 8
  %10 = call i32 @Abc_ObjIsNode(ptr noundef %9)
  %11 = icmp ne i32 %10, 0
  br i1 %11, label %12, label %22

12:                                               ; preds = %8
  %13 = load ptr, ptr %2, align 8
  %14 = getelementptr inbounds %struct.Abc_Obj_t_, ptr %13, i32 0, i32 4
  %15 = call i32 @Vec_IntSize(ptr noundef %14)
  %16 = icmp eq i32 %15, 1
  br i1 %16, label %17, label %22

17:                                               ; preds = %12
  %18 = load ptr, ptr %2, align 8
  %19 = getelementptr inbounds %struct.Abc_Obj_t_, ptr %18, i32 0, i32 6
  %20 = load ptr, ptr %19, align 8
  %21 = icmp eq ptr %20, null
  br label %22

22:                                               ; preds = %17, %12, %8, %1
  %23 = phi i1 [ false, %12 ], [ false, %8 ], [ false, %1 ], [ %21, %17 ]
  %24 = zext i1 %23 to i32
  ret i32 %24
}

; Function Attrs: nounwind uwtable
define internal i32 @Abc_ObjIsNode(ptr noundef %0) #0 {
  %2 = alloca ptr, align 8
  store ptr %0, ptr %2, align 8
  %3 = load ptr, ptr %2, align 8
  %4 = getelementptr inbounds %struct.Abc_Obj_t_, ptr %3, i32 0, i32 3
  %5 = load i32, ptr %4, align 4
  %6 = and i32 %5, 15
  %7 = icmp eq i32 %6, 7
  %8 = zext i1 %7 to i32
  ret i32 %8
}

; Function Attrs: nounwind uwtable
define internal ptr @Abc_NtkObj(ptr noundef %0, i32 noundef %1) #0 {
  %3 = alloca ptr, align 8
  %4 = alloca i32, align 4
  store ptr %0, ptr %3, align 8
  store i32 %1, ptr %4, align 4
  %5 = load ptr, ptr %3, align 8
  %6 = getelementptr inbounds %struct.Abc_Ntk_t_, ptr %5, i32 0, i32 5
  %7 = load ptr, ptr %6, align 8
  %8 = load i32, ptr %4, align 4
  %9 = call ptr @Vec_PtrEntry(ptr noundef %7, i32 noundef %8)
  ret ptr %9
}

; Function Attrs: nounwind uwtable
define internal i32 @Vec_PtrSize(ptr noundef %0) #0 {
  %2 = alloca ptr, align 8
  store ptr %0, ptr %2, align 8
  %3 = load ptr, ptr %2, align 8
  %4 = getelementptr inbounds %struct.Vec_Ptr_t_, ptr %3, i32 0, i32 1
  %5 = load i32, ptr %4, align 4
  ret i32 %5
}

; Function Attrs: nounwind uwtable
define internal ptr @Abc_NtkPi(ptr noundef %0, i32 noundef %1) #0 {
  %3 = alloca ptr, align 8
  %4 = alloca i32, align 4
  store ptr %0, ptr %3, align 8
  store i32 %1, ptr %4, align 4
  %5 = load ptr, ptr %3, align 8
  %6 = getelementptr inbounds %struct.Abc_Ntk_t_, ptr %5, i32 0, i32 6
  %7 = load ptr, ptr %6, align 8
  %8 = load i32, ptr %4, align 4
  %9 = call ptr @Vec_PtrEntry(ptr noundef %7, i32 noundef %8)
  ret ptr %9
}

; Function Attrs: nounwind uwtable
define internal i32 @Abc_NtkPiNum(ptr noundef %0) #0 {
  %2 = alloca ptr, align 8
  store ptr %0, ptr %2, align 8
  %3 = load ptr, ptr %2, align 8
  %4 = getelementptr inbounds %struct.Abc_Ntk_t_, ptr %3, i32 0, i32 6
  %5 = load ptr, ptr %4, align 8
  %6 = call i32 @Vec_PtrSize(ptr noundef %5)
  ret i32 %6
}

; Function Attrs: nounwind uwtable
define void @Bac_ManMarkNodesAbc(ptr noundef %0, ptr noundef %1) #0 {
  %3 = alloca ptr, align 8
  %4 = alloca ptr, align 8
  %5 = alloca ptr, align 8
  %6 = alloca ptr, align 8
  %7 = alloca i32, align 4
  %8 = alloca i32, align 4
  %9 = alloca i32, align 4
  store ptr %0, ptr %3, align 8
  store ptr %1, ptr %4, align 8
  store i32 0, ptr %9, align 4
  store i32 0, ptr %7, align 4
  br label %10

10:                                               ; preds = %24, %2
  %11 = load i32, ptr %7, align 4
  %12 = load ptr, ptr %4, align 8
  %13 = call i32 @Abc_NtkPiNum(ptr noundef %12)
  %14 = icmp slt i32 %11, %13
  br i1 %14, label %15, label %19

15:                                               ; preds = %10
  %16 = load ptr, ptr %4, align 8
  %17 = load i32, ptr %7, align 4
  %18 = call ptr @Abc_NtkPi(ptr noundef %16, i32 noundef %17)
  store ptr %18, ptr %5, align 8
  br label %19

19:                                               ; preds = %15, %10
  %20 = phi i1 [ false, %10 ], [ true, %15 ]
  br i1 %20, label %21, label %27

21:                                               ; preds = %19
  %22 = load ptr, ptr %5, align 8
  %23 = getelementptr inbounds %struct.Abc_Obj_t_, ptr %22, i32 0, i32 7
  store i32 1, ptr %23, align 8
  br label %24

24:                                               ; preds = %21
  %25 = load i32, ptr %7, align 4
  %26 = add nsw i32 %25, 1
  store i32 %26, ptr %7, align 4
  br label %10, !llvm.loop !35

27:                                               ; preds = %19
  store i32 0, ptr %7, align 4
  br label %28

28:                                               ; preds = %91, %27
  %29 = load i32, ptr %7, align 4
  %30 = load ptr, ptr %4, align 8
  %31 = getelementptr inbounds %struct.Abc_Ntk_t_, ptr %30, i32 0, i32 5
  %32 = load ptr, ptr %31, align 8
  %33 = call i32 @Vec_PtrSize(ptr noundef %32)
  %34 = icmp slt i32 %29, %33
  br i1 %34, label %35, label %39

35:                                               ; preds = %28
  %36 = load ptr, ptr %4, align 8
  %37 = load i32, ptr %7, align 4
  %38 = call ptr @Abc_NtkObj(ptr noundef %36, i32 noundef %37)
  store ptr %38, ptr %5, align 8
  br label %39

39:                                               ; preds = %35, %28
  %40 = phi i1 [ false, %28 ], [ true, %35 ]
  br i1 %40, label %41, label %94

41:                                               ; preds = %39
  %42 = load ptr, ptr %5, align 8
  %43 = icmp eq ptr %42, null
  br i1 %43, label %48, label %44

44:                                               ; preds = %41
  %45 = load ptr, ptr %5, align 8
  %46 = call i32 @Abc_ObjIsNode(ptr noundef %45)
  %47 = icmp ne i32 %46, 0
  br i1 %47, label %49, label %48

48:                                               ; preds = %44, %41
  br label %90

49:                                               ; preds = %44
  %50 = load ptr, ptr %5, align 8
  %51 = call i32 @Abc_ObjIsBarBuf(ptr noundef %50)
  %52 = icmp ne i32 %51, 0
  br i1 %52, label %53, label %61

53:                                               ; preds = %49
  %54 = load ptr, ptr %3, align 8
  %55 = getelementptr inbounds %struct.Bac_Man_t_, ptr %54, i32 0, i32 11
  %56 = load i32, ptr %9, align 4
  %57 = add nsw i32 %56, 1
  store i32 %57, ptr %9, align 4
  %58 = call i32 @Vec_IntEntry(ptr noundef %55, i32 noundef %56)
  %59 = load ptr, ptr %5, align 8
  %60 = getelementptr inbounds %struct.Abc_Obj_t_, ptr %59, i32 0, i32 7
  store i32 %58, ptr %60, align 8
  br label %89

61:                                               ; preds = %49
  %62 = load ptr, ptr %5, align 8
  %63 = call i32 @Abc_NodeIsSeriousGate(ptr noundef %62)
  %64 = icmp ne i32 %63, 0
  br i1 %64, label %65, label %88

65:                                               ; preds = %61
  %66 = load ptr, ptr %5, align 8
  %67 = call ptr @Abc_ObjFanin0(ptr noundef %66)
  %68 = getelementptr inbounds %struct.Abc_Obj_t_, ptr %67, i32 0, i32 7
  %69 = load i32, ptr %68, align 8
  %70 = load ptr, ptr %5, align 8
  %71 = getelementptr inbounds %struct.Abc_Obj_t_, ptr %70, i32 0, i32 7
  store i32 %69, ptr %71, align 8
  store i32 0, ptr %8, align 4
  br label %72

72:                                               ; preds = %84, %65
  %73 = load i32, ptr %8, align 4
  %74 = load ptr, ptr %5, align 8
  %75 = call i32 @Abc_ObjFaninNum(ptr noundef %74)
  %76 = icmp slt i32 %73, %75
  br i1 %76, label %77, label %81

77:                                               ; preds = %72
  %78 = load ptr, ptr %5, align 8
  %79 = load i32, ptr %8, align 4
  %80 = call ptr @Abc_ObjFanin(ptr noundef %78, i32 noundef %79)
  store ptr %80, ptr %6, align 8
  br label %81

81:                                               ; preds = %77, %72
  %82 = phi i1 [ false, %72 ], [ true, %77 ]
  br i1 %82, label %83, label %87

83:                                               ; preds = %81
  br label %84

84:                                               ; preds = %83
  %85 = load i32, ptr %8, align 4
  %86 = add nsw i32 %85, 1
  store i32 %86, ptr %8, align 4
  br label %72, !llvm.loop !36

87:                                               ; preds = %81
  br label %88

88:                                               ; preds = %87, %61
  br label %89

89:                                               ; preds = %88, %53
  br label %90

90:                                               ; preds = %89, %48
  br label %91

91:                                               ; preds = %90
  %92 = load i32, ptr %7, align 4
  %93 = add nsw i32 %92, 1
  store i32 %93, ptr %7, align 4
  br label %28, !llvm.loop !37

94:                                               ; preds = %39
  store i32 0, ptr %7, align 4
  br label %95

95:                                               ; preds = %119, %94
  %96 = load i32, ptr %7, align 4
  %97 = load ptr, ptr %4, align 8
  %98 = call i32 @Abc_NtkPoNum(ptr noundef %97)
  %99 = icmp slt i32 %96, %98
  br i1 %99, label %100, label %104

100:                                              ; preds = %95
  %101 = load ptr, ptr %4, align 8
  %102 = load i32, ptr %7, align 4
  %103 = call ptr @Abc_NtkPo(ptr noundef %101, i32 noundef %102)
  store ptr %103, ptr %5, align 8
  br label %104

104:                                              ; preds = %100, %95
  %105 = phi i1 [ false, %95 ], [ true, %100 ]
  br i1 %105, label %106, label %122

106:                                              ; preds = %104
  %107 = load ptr, ptr %5, align 8
  %108 = call ptr @Abc_ObjFanin0(ptr noundef %107)
  %109 = call i32 @Abc_NodeIsSeriousGate(ptr noundef %108)
  %110 = icmp ne i32 %109, 0
  br i1 %110, label %112, label %111

111:                                              ; preds = %106
  br label %119

112:                                              ; preds = %106
  %113 = load ptr, ptr %5, align 8
  %114 = call ptr @Abc_ObjFanin0(ptr noundef %113)
  %115 = getelementptr inbounds %struct.Abc_Obj_t_, ptr %114, i32 0, i32 7
  %116 = load i32, ptr %115, align 8
  %117 = load ptr, ptr %5, align 8
  %118 = getelementptr inbounds %struct.Abc_Obj_t_, ptr %117, i32 0, i32 7
  store i32 %116, ptr %118, align 8
  br label %119

119:                                              ; preds = %112, %111
  %120 = load i32, ptr %7, align 4
  %121 = add nsw i32 %120, 1
  store i32 %121, ptr %7, align 4
  br label %95, !llvm.loop !38

122:                                              ; preds = %104
  ret void
}