; Function Attrs: nofree norecurse nosync nounwind memory(readwrite, inaccessiblemem: none) uwtable
define void @Bac_ManMarkNodesAbc(ptr noundef readonly captures(none) %0, ptr noundef readonly captures(none) %1) local_unnamed_addr #4 {
  %3 = getelementptr i8, ptr %1, i64 40
  %.val4682 = load ptr, ptr %3, align 8
  %4 = getelementptr i8, ptr %.val4682, i64 4
  %.val46.val83 = load i32, ptr %4, align 4
  %5 = icmp sgt i32 %.val46.val83, 0
  br i1 %5, label %.lr.ph, label %.critedge.preheader

.critedge.preheader:                              ; preds = %.lr.ph, %2
  %6 = getelementptr inbounds nuw i8, ptr %1, i64 32
  %7 = load ptr, ptr %6, align 8
  %8 = getelementptr i8, ptr %7, i64 4
  %.val4586 = load i32, ptr %8, align 4
  %9 = icmp sgt i32 %.val4586, 0
  br i1 %9, label %.lr.ph89, label %.critedge2.preheader

.lr.ph89:                                         ; preds = %.critedge.preheader
  %10 = getelementptr i8, ptr %0, i64 104
  br label %21

.lr.ph:                                           ; preds = %2, %.lr.ph
  %indvars.iv = phi i64 [ %indvars.iv.next, %.lr.ph ], [ 0, %2 ]
  %.val4685 = phi ptr [ %.val46, %.lr.ph ], [ %.val4682, %2 ]
  %11 = getelementptr i8, ptr %.val4685, i64 8
  %.val47.val = load ptr, ptr %11, align 8
  %12 = getelementptr inbounds nuw ptr, ptr %.val47.val, i64 %indvars.iv
  %13 = load ptr, ptr %12, align 8
  %14 = getelementptr inbounds nuw i8, ptr %13, i64 64
  store i32 1, ptr %14, align 8
  %indvars.iv.next = add nuw nsw i64 %indvars.iv, 1
  %.val46 = load ptr, ptr %3, align 8
  %15 = getelementptr i8, ptr %.val46, i64 4
  %.val46.val = load i32, ptr %15, align 4
  %16 = sext i32 %.val46.val to i64
  %17 = icmp slt i64 %indvars.iv.next, %16
  br i1 %17, label %.lr.ph, label %.critedge.preheader, !llvm.loop !53

.critedge2.preheader:                             ; preds = %.critedge4, %.critedge.preheader
  %18 = getelementptr i8, ptr %1, i64 48
  %.val5990 = load ptr, ptr %18, align 8
  %19 = getelementptr i8, ptr %.val5990, i64 4
  %.val59.val91 = load i32, ptr %19, align 4
  %20 = icmp sgt i32 %.val59.val91, 0
  br i1 %20, label %.lr.ph94, label %.critedge6

21:                                               ; preds = %.lr.ph89, %.critedge4
  %indvars.iv96 = phi i64 [ 0, %.lr.ph89 ], [ %indvars.iv.next97, %.critedge4 ]
  %22 = phi ptr [ %7, %.lr.ph89 ], [ %53, %.critedge4 ]
  %.088 = phi i32 [ 0, %.lr.ph89 ], [ %.1, %.critedge4 ]
  %23 = getelementptr i8, ptr %22, i64 8
  %.val48.val = load ptr, ptr %23, align 8
  %24 = getelementptr inbounds nuw ptr, ptr %.val48.val, i64 %indvars.iv96
  %25 = load ptr, ptr %24, align 8
  %26 = icmp eq ptr %25, null
  br i1 %26, label %.critedge4, label %27

27:                                               ; preds = %21
  %28 = getelementptr i8, ptr %25, i64 20
  %.val49 = load i32, ptr %28, align 4
  %29 = and i32 %.val49, 15
  %.not = icmp eq i32 %29, 7
  br i1 %.not, label %30, label %.critedge4

30:                                               ; preds = %27
  %31 = load ptr, ptr %25, align 8
  %32 = getelementptr i8, ptr %31, i64 4
  %.val6.i = load i32, ptr %32, align 4
  %.not.i = icmp eq i32 %.val6.i, 4
  %33 = getelementptr i8, ptr %25, i64 28
  %.val.i = load i32, ptr %33, align 4
  %34 = icmp eq i32 %.val.i, 1
  %or.cond = select i1 %.not.i, i1 %34, i1 false
  br i1 %or.cond, label %Abc_ObjIsBarBuf.exit, label %.thread71

Abc_ObjIsBarBuf.exit:                             ; preds = %30
  %35 = getelementptr inbounds nuw i8, ptr %25, i64 56
  %36 = load ptr, ptr %35, align 8
  %.not80 = icmp eq ptr %36, null
  br i1 %.not80, label %37, label %.thread71.thread

37:                                               ; preds = %Abc_ObjIsBarBuf.exit
  %38 = add nsw i32 %.088, 1
  %.val = load ptr, ptr %10, align 8
  %39 = sext i32 %.088 to i64
  %40 = getelementptr inbounds i32, ptr %.val, i64 %39
  br label %.critedge4.sink.split

.thread71:                                        ; preds = %30
  %41 = icmp sgt i32 %.val.i, 0
  br i1 %41, label %.thread71.thread, label %.critedge4

.thread71.thread:                                 ; preds = %Abc_ObjIsBarBuf.exit, %.thread71
  %.val4.i106 = phi i32 [ %.val.i, %.thread71 ], [ 1, %Abc_ObjIsBarBuf.exit ]
  %42 = icmp eq i32 %.val4.i106, 1
  %or.cond.i = and i1 %.not.i, %42
  br i1 %or.cond.i, label %Abc_NodeIsSeriousGate.exit, label %Abc_NodeIsSeriousGate.exit.thread74

Abc_NodeIsSeriousGate.exit:                       ; preds = %.thread71.thread
  %43 = getelementptr inbounds nuw i8, ptr %25, i64 56
  %44 = load ptr, ptr %43, align 8
  %.not81 = icmp eq ptr %44, null
  br i1 %.not81, label %.critedge4, label %Abc_NodeIsSeriousGate.exit.thread74

Abc_NodeIsSeriousGate.exit.thread74:              ; preds = %.thread71.thread, %Abc_NodeIsSeriousGate.exit
  %45 = getelementptr i8, ptr %25, i64 32
  %.val52 = load ptr, ptr %45, align 8
  %46 = getelementptr i8, ptr %31, i64 32
  %.val51.val = load ptr, ptr %46, align 8
  %.val52.val = load i32, ptr %.val52, align 4
  %47 = getelementptr i8, ptr %.val51.val, i64 8
  %.val51.val.val = load ptr, ptr %47, align 8
  %48 = sext i32 %.val52.val to i64
  %49 = getelementptr inbounds ptr, ptr %.val51.val.val, i64 %48
  %50 = load ptr, ptr %49, align 8
  %51 = getelementptr inbounds nuw i8, ptr %50, i64 64
  br label %.critedge4.sink.split

.critedge4.sink.split:                            ; preds = %37, %Abc_NodeIsSeriousGate.exit.thread74
  %.sink.in = phi ptr [ %51, %Abc_NodeIsSeriousGate.exit.thread74 ], [ %40, %37 ]
  %.1.ph = phi i32 [ %.088, %Abc_NodeIsSeriousGate.exit.thread74 ], [ %38, %37 ]
  %.sink = load i32, ptr %.sink.in, align 4
  %52 = getelementptr inbounds nuw i8, ptr %25, i64 64
  store i32 %.sink, ptr %52, align 8
  br label %.critedge4

.critedge4:                                       ; preds = %.critedge4.sink.split, %.thread71, %27, %21, %Abc_NodeIsSeriousGate.exit
  %.1 = phi i32 [ %.088, %21 ], [ %.088, %Abc_NodeIsSeriousGate.exit ], [ %.088, %27 ], [ %.088, %.thread71 ], [ %.1.ph, %.critedge4.sink.split ]
  %indvars.iv.next97 = add nuw nsw i64 %indvars.iv96, 1
  %53 = load ptr, ptr %6, align 8
  %54 = getelementptr i8, ptr %53, i64 4
  %.val45 = load i32, ptr %54, align 4
  %55 = sext i32 %.val45 to i64
  %56 = icmp slt i64 %indvars.iv.next97, %55
  br i1 %56, label %21, label %.critedge2.preheader, !llvm.loop !54

.lr.ph94:                                         ; preds = %.critedge2.preheader, %Abc_NodeIsSeriousGate.exit69.thread
  %.val59103 = phi ptr [ %.val59, %Abc_NodeIsSeriousGate.exit69.thread ], [ %.val5990, %.critedge2.preheader ]
  %indvars.iv99 = phi i64 [ %indvars.iv.next100, %Abc_NodeIsSeriousGate.exit69.thread ], [ 0, %.critedge2.preheader ]
  %57 = getelementptr i8, ptr %.val59103, i64 8
  %.val60.val = load ptr, ptr %57, align 8
  %58 = getelementptr inbounds nuw ptr, ptr %.val60.val, i64 %indvars.iv99
  %59 = load ptr, ptr %58, align 8
  %.val53 = load ptr, ptr %59, align 8
  %60 = getelementptr i8, ptr %59, i64 32
  %.val54 = load ptr, ptr %60, align 8
  %61 = getelementptr i8, ptr %.val53, i64 32
  %.val53.val = load ptr, ptr %61, align 8
  %.val54.val = load i32, ptr %.val54, align 4
  %62 = getelementptr i8, ptr %.val53.val, i64 8
  %.val53.val.val = load ptr, ptr %62, align 8
  %63 = sext i32 %.val54.val to i64
  %64 = getelementptr inbounds ptr, ptr %.val53.val.val, i64 %63
  %65 = load ptr, ptr %64, align 8
  %66 = getelementptr i8, ptr %65, i64 20
  %.val.i63 = load i32, ptr %66, align 4
  %67 = and i32 %.val.i63, 15
  %.not.i64 = icmp eq i32 %67, 7
  br i1 %.not.i64, label %68, label %Abc_NodeIsSeriousGate.exit69.thread

68:                                               ; preds = %.lr.ph94
  %69 = getelementptr i8, ptr %65, i64 28
  %.val4.i65 = load i32, ptr %69, align 4
  %70 = icmp sgt i32 %.val4.i65, 0
  br i1 %70, label %71, label %Abc_NodeIsSeriousGate.exit69.thread

71:                                               ; preds = %68
  %72 = load ptr, ptr %65, align 8
  %73 = getelementptr i8, ptr %72, i64 4
  %.val6.i.i66 = load i32, ptr %73, align 4
  %.not.i.not.i67 = icmp eq i32 %.val6.i.i66, 4
  %74 = icmp eq i32 %.val4.i65, 1
  %or.cond.i68 = and i1 %74, %.not.i.not.i67
  br i1 %or.cond.i68, label %Abc_NodeIsSeriousGate.exit69, label %Abc_NodeIsSeriousGate.exit69.thread77

Abc_NodeIsSeriousGate.exit69:                     ; preds = %71
  %75 = getelementptr inbounds nuw i8, ptr %65, i64 56
  %76 = load ptr, ptr %75, align 8
  %.not79 = icmp eq ptr %76, null
  br i1 %.not79, label %Abc_NodeIsSeriousGate.exit69.thread, label %Abc_NodeIsSeriousGate.exit69.thread77

Abc_NodeIsSeriousGate.exit69.thread77:            ; preds = %71, %Abc_NodeIsSeriousGate.exit69
  %77 = getelementptr inbounds nuw i8, ptr %65, i64 64
  %78 = load i32, ptr %77, align 8
  %79 = getelementptr inbounds nuw i8, ptr %59, i64 64
  store i32 %78, ptr %79, align 8
  %.val59.pre = load ptr, ptr %18, align 8
  br label %Abc_NodeIsSeriousGate.exit69.thread

Abc_NodeIsSeriousGate.exit69.thread:              ; preds = %.lr.ph94, %68, %Abc_NodeIsSeriousGate.exit69, %Abc_NodeIsSeriousGate.exit69.thread77
  %.val59 = phi ptr [ %.val59103, %.lr.ph94 ], [ %.val59103, %68 ], [ %.val59103, %Abc_NodeIsSeriousGate.exit69 ], [ %.val59.pre, %Abc_NodeIsSeriousGate.exit69.thread77 ]
  %indvars.iv.next100 = add nuw nsw i64 %indvars.iv99, 1
  %80 = getelementptr i8, ptr %.val59, i64 4
  %.val59.val = load i32, ptr %80, align 4
  %81 = sext i32 %.val59.val to i64
  %82 = icmp slt i64 %indvars.iv.next100, %81
  br i1 %82, label %.lr.ph94, label %.critedge6, !llvm.loop !55

.critedge6:                                       ; preds = %Abc_NodeIsSeriousGate.exit69.thread, %.critedge2.preheader
  ret void
}